target datalayout = "e-m:e-p270:32:32-p271:32:32-p272:64:64-i64:64-i128:128-f80:128-n8:16:32:64-S128"
target triple = "x86_64-pc-linux-gnu"

%"class.icu_77::UnicodeSet" = type <{ %"class.icu_77::UnicodeFilter", ptr, i32, i32, i8, [7 x i8], ptr, ptr, i32, [4 x i8], ptr, i32, [4 x i8], ptr, ptr, [25 x i32], [4 x i8] }>
%"class.icu_77::UnicodeFilter" = type { %"class.icu_77::UnicodeFunctor", %"class.icu_77::UnicodeMatcher" }
%"class.icu_77::UnicodeFunctor" = type { %"class.icu_77::UObject" }
%"class.icu_77::UObject" = type { ptr }
%"class.icu_77::UnicodeMatcher" = type { ptr }
%"class.icu_77::UnicodeString" = type { %"class.icu_77::Replaceable", %"union.icu_77::UnicodeString::StackBufferOrFields" }
%"class.icu_77::Replaceable" = type { %"class.icu_77::UObject" }
%"union.icu_77::UnicodeString::StackBufferOrFields" = type { %struct.anon.0, [32 x i8] }
%struct.anon.0 = type { i16, i32, i32, ptr }
%"class.icu_77::RBBIRuleScanner" = type { ptr, ptr, i32, i32, i8, i32, i32, i32, %"struct.icu_77::RBBIRuleScanner::RBBIRuleChar", %"class.icu_77::UnicodeString", ptr, [100 x i16], i32, [100 x ptr], i32, i8, i8, i8, ptr, ptr, [10 x %"class.icu_77::UnicodeSet"], i32, i32, ptr, ptr, ptr, ptr }
%"struct.icu_77::RBBIRuleScanner::RBBIRuleChar" = type <{ i32, i8, [3 x i8] }>
%"class.icu_77::RBBIRuleBuilder" = type { ptr, ptr, ptr, ptr, ptr, %"class.icu_77::UnicodeString", ptr, ptr, ptr, ptr, ptr, ptr, i8, i8, ptr, ptr, ptr, ptr }
%struct.UParseError = type { i32, i32, [16 x i16], [16 x i16] }

; Function Attrs: inlinehint mustprogress nounwind uwtable
define internal noundef signext i8 @_ZL9U_SUCCESS10UErrorCode(i32 noundef %0) #5 {
  %2 = alloca i32, align 4
  store i32 %0, ptr %2, align 4, !tbaa !53
  %3 = load i32, ptr %2, align 4, !tbaa !53
  %4 = icmp sle i32 %3, 0
  %5 = zext i1 %4 to i8
  ret i8 %5
}

; Function Attrs: inlinehint mustprogress nounwind uwtable
define linkonce_odr noundef i32 @_ZNK6icu_7713UnicodeString14getShortLengthEv(ptr noundef nonnull align 8 dereferenceable(64) %0) #5 comdat align 2 {
  %2 = alloca ptr, align 8
  store ptr %0, ptr %2, align 8, !tbaa !60
  %3 = load ptr, ptr %2, align 8
  %4 = getelementptr inbounds nuw %"class.icu_77::UnicodeString", ptr %3, i32 0, i32 1
  %5 = getelementptr inbounds nuw %struct.anon.0, ptr %4, i32 0, i32 0
  %6 = load i16, ptr %5, align 8, !tbaa !61
  %7 = sext i16 %6 to i32
  %8 = ashr i32 %7, 5
  ret i32 %8
}

; Function Attrs: inlinehint mustprogress nounwind uwtable
define linkonce_odr noundef signext i8 @_ZNK6icu_7713UnicodeString14hasShortLengthEv(ptr noundef nonnull align 8 dereferenceable(64) %0) #5 comdat align 2 {
  %2 = alloca ptr, align 8
  store ptr %0, ptr %2, align 8, !tbaa !60
  %3 = load ptr, ptr %2, align 8
  %4 = getelementptr inbounds nuw %"class.icu_77::UnicodeString", ptr %3, i32 0, i32 1
  %5 = getelementptr inbounds nuw %struct.anon.0, ptr %4, i32 0, i32 0
  %6 = load i16, ptr %5, align 8, !tbaa !61
  %7 = sext i16 %6 to i32
  %8 = icmp sge i32 %7, 0
  %9 = zext i1 %8 to i8
  ret i8 %9
}

; Function Attrs: mustprogress uwtable
define void @_ZN6icu_7715RBBIRuleScanner5errorE10UErrorCode(ptr noundef nonnull align 8 dereferenceable(3192) %0, i32 noundef %1) #0 align 2 {
  %3 = alloca ptr, align 8
  %4 = alloca i32, align 4
  store ptr %0, ptr %3, align 8, !tbaa !3
  store i32 %1, ptr %4, align 4, !tbaa !53
  %5 = load ptr, ptr %3, align 8
  %6 = getelementptr inbounds nuw %"class.icu_77::RBBIRuleScanner", ptr %5, i32 0, i32 1
  %7 = load ptr, ptr %6, align 8, !tbaa !12
  %8 = getelementptr inbounds nuw %"class.icu_77::RBBIRuleBuilder", ptr %7, i32 0, i32 2
  %9 = load ptr, ptr %8, align 8, !tbaa !44
  %10 = load i32, ptr %9, align 4, !tbaa !53
  %11 = call noundef signext i8 @_ZL9U_SUCCESS10UErrorCode(i32 noundef %10)
  %12 = icmp ne i8 %11, 0
  br i1 %12, label %13, label %52

13:                                               ; preds = %2
  %14 = load i32, ptr %4, align 4, !tbaa !53
  %15 = getelementptr inbounds nuw %"class.icu_77::RBBIRuleScanner", ptr %5, i32 0, i32 1
  %16 = load ptr, ptr %15, align 8, !tbaa !12
  %17 = getelementptr inbounds nuw %"class.icu_77::RBBIRuleBuilder", ptr %16, i32 0, i32 2
  %18 = load ptr, ptr %17, align 8, !tbaa !44
  store i32 %14, ptr %18, align 4, !tbaa !53
  %19 = getelementptr inbounds nuw %"class.icu_77::RBBIRuleScanner", ptr %5, i32 0, i32 1
  %20 = load ptr, ptr %19, align 8, !tbaa !12
  %21 = getelementptr inbounds nuw %"class.icu_77::RBBIRuleBuilder", ptr %20, i32 0, i32 3
  %22 = load ptr, ptr %21, align 8, !tbaa !96
  %23 = icmp ne ptr %22, null
  br i1 %23, label %24, label %51

24:                                               ; preds = %13
  %25 = getelementptr inbounds nuw %"class.icu_77::RBBIRuleScanner", ptr %5, i32 0, i32 5
  %26 = load i32, ptr %25, align 4, !tbaa !27
  %27 = getelementptr inbounds nuw %"class.icu_77::RBBIRuleScanner", ptr %5, i32 0, i32 1
  %28 = load ptr, ptr %27, align 8, !tbaa !12
  %29 = getelementptr inbounds nuw %"class.icu_77::RBBIRuleBuilder", ptr %28, i32 0, i32 3
  %30 = load ptr, ptr %29, align 8, !tbaa !96
  %31 = getelementptr inbounds nuw %struct.UParseError, ptr %30, i32 0, i32 0
  store i32 %26, ptr %31, align 4, !tbaa !97
  %32 = getelementptr inbounds nuw %"class.icu_77::RBBIRuleScanner", ptr %5, i32 0, i32 6
  %33 = load i32, ptr %32, align 8, !tbaa !28
  %34 = getelementptr inbounds nuw %"class.icu_77::RBBIRuleScanner", ptr %5, i32 0, i32 1
  %35 = load ptr, ptr %34, align 8, !tbaa !12
  %36 = getelementptr inbounds nuw %"class.icu_77::RBBIRuleBuilder", ptr %35, i32 0, i32 3
  %37 = load ptr, ptr %36, align 8, !tbaa !96
  %38 = getelementptr inbounds nuw %struct.UParseError, ptr %37, i32 0, i32 1
  store i32 %33, ptr %38, align 4, !tbaa !99
  %39 = getelementptr inbounds nuw %"class.icu_77::RBBIRuleScanner", ptr %5, i32 0, i32 1
  %40 = load ptr, ptr %39, align 8, !tbaa !12
  %41 = getelementptr inbounds nuw %"class.icu_77::RBBIRuleBuilder", ptr %40, i32 0, i32 3
  %42 = load ptr, ptr %41, align 8, !tbaa !96
  %43 = getelementptr inbounds nuw %struct.UParseError, ptr %42, i32 0, i32 2
  %44 = getelementptr inbounds [16 x i16], ptr %43, i64 0, i64 0
  store i16 0, ptr %44, align 4, !tbaa !100
  %45 = getelementptr inbounds nuw %"class.icu_77::RBBIRuleScanner", ptr %5, i32 0, i32 1
  %46 = load ptr, ptr %45, align 8, !tbaa !12
  %47 = getelementptr inbounds nuw %"class.icu_77::RBBIRuleBuilder", ptr %46, i32 0, i32 3
  %48 = load ptr, ptr %47, align 8, !tbaa !96
  %49 = getelementptr inbounds nuw %struct.UParseError, ptr %48, i32 0, i32 3
  %50 = getelementptr inbounds [16 x i16], ptr %49, i64 0, i64 0
  store i16 0, ptr %50, align 4, !tbaa !100
  br label %51

51:                                               ; preds = %24, %13
  br label %52

52:                                               ; preds = %51, %2
  ret void
}

; Function Attrs: inlinehint mustprogress uwtable
define linkonce_odr noundef i32 @_ZNK6icu_7713UnicodeString6lengthEv(ptr noundef nonnull align 8 dereferenceable(64) %0) #2 comdat align 2 {
  %2 = alloca ptr, align 8
  store ptr %0, ptr %2, align 8, !tbaa !60
  %3 = load ptr, ptr %2, align 8
  %4 = call noundef signext i8 @_ZNK6icu_7713UnicodeString14hasShortLengthEv(ptr noundef nonnull align 8 dereferenceable(64) %3)
  %5 = icmp ne i8 %4, 0
  br i1 %5, label %6, label %8

6:                                                ; preds = %1
  %7 = call noundef i32 @_ZNK6icu_7713UnicodeString14getShortLengthEv(ptr noundef nonnull align 8 dereferenceable(64) %3)
  br label %12

8:                                                ; preds = %1
  %9 = getelementptr inbounds nuw %"class.icu_77::UnicodeString", ptr %3, i32 0, i32 1
  %10 = getelementptr inbounds nuw %struct.anon.0, ptr %9, i32 0, i32 1
  %11 = load i32, ptr %10, align 4, !tbaa !61
  br label %12

12:                                               ; preds = %8, %6
  %13 = phi i32 [ %7, %6 ], [ %11, %8 ]
  ret i32 %13
}

; Function Attrs: mustprogress uwtable
define noundef i32 @_ZN6icu_7715RBBIRuleScanner10nextCharLLEv(ptr noundef nonnull align 8 dereferenceable(3192) %0) #0 align 2 {
  %2 = alloca i32, align 4
  %3 = alloca ptr, align 8
  %4 = alloca i32, align 4
  %5 = alloca i32, align 4
  store ptr %0, ptr %3, align 8, !tbaa !3
  %6 = load ptr, ptr %3, align 8
  call void @llvm.lifetime.start.p0(i64 4, ptr %4) #12
  %7 = getelementptr inbounds nuw %"class.icu_77::RBBIRuleScanner", ptr %6, i32 0, i32 3
  %8 = load i32, ptr %7, align 4, !tbaa !25
  %9 = getelementptr inbounds nuw %"class.icu_77::RBBIRuleScanner", ptr %6, i32 0, i32 1
  %10 = load ptr, ptr %9, align 8, !tbaa !12
  %11 = getelementptr inbounds nuw %"class.icu_77::RBBIRuleBuilder", ptr %10, i32 0, i32 4
  %12 = load ptr, ptr %11, align 8, !tbaa !55
  %13 = call noundef i32 @_ZNK6icu_7713UnicodeString6lengthEv(ptr noundef nonnull align 8 dereferenceable(64) %12)
  %14 = icmp sge i32 %8, %13
  br i1 %14, label %15, label %16

15:                                               ; preds = %1
  store i32 -1, ptr %2, align 4
  store i32 1, ptr %5, align 4
  br label %75

16:                                               ; preds = %1
  %17 = getelementptr inbounds nuw %"class.icu_77::RBBIRuleScanner", ptr %6, i32 0, i32 1
  %18 = load ptr, ptr %17, align 8, !tbaa !12
  %19 = getelementptr inbounds nuw %"class.icu_77::RBBIRuleBuilder", ptr %18, i32 0, i32 4
  %20 = load ptr, ptr %19, align 8, !tbaa !55
  %21 = getelementptr inbounds nuw %"class.icu_77::RBBIRuleScanner", ptr %6, i32 0, i32 3
  %22 = load i32, ptr %21, align 4, !tbaa !25
  %23 = call noundef i32 @_ZNK6icu_7713UnicodeString8char32AtEi(ptr noundef nonnull align 8 dereferenceable(64) %20, i32 noundef %22)
  store i32 %23, ptr %4, align 4, !tbaa !71
  %24 = load i32, ptr %4, align 4, !tbaa !71
  %25 = and i32 %24, -2048
  %26 = icmp eq i32 %25, 55296
  br i1 %26, label %27, label %28

27:                                               ; preds = %16
  call void @_ZN6icu_7715RBBIRuleScanner5errorE10UErrorCode(ptr noundef nonnull align 8 dereferenceable(3192) %6, i32 noundef 12)
  store i32 -1, ptr %2, align 4
  store i32 1, ptr %5, align 4
  br label %75

28:                                               ; preds = %16
  %29 = getelementptr inbounds nuw %"class.icu_77::RBBIRuleScanner", ptr %6, i32 0, i32 1
  %30 = load ptr, ptr %29, align 8, !tbaa !12
  %31 = getelementptr inbounds nuw %"class.icu_77::RBBIRuleBuilder", ptr %30, i32 0, i32 4
  %32 = load ptr, ptr %31, align 8, !tbaa !55
  %33 = getelementptr inbounds nuw %"class.icu_77::RBBIRuleScanner", ptr %6, i32 0, i32 3
  %34 = load i32, ptr %33, align 4, !tbaa !25
  %35 = call noundef i32 @_ZNK6icu_7713UnicodeString11moveIndex32Eii(ptr noundef nonnull align 8 dereferenceable(64) %32, i32 noundef %34, i32 noundef 1)
  %36 = getelementptr inbounds nuw %"class.icu_77::RBBIRuleScanner", ptr %6, i32 0, i32 3
  store i32 %35, ptr %36, align 4, !tbaa !25
  %37 = load i32, ptr %4, align 4, !tbaa !71
  %38 = icmp eq i32 %37, 13
  br i1 %38, label %52, label %39

39:                                               ; preds = %28
  %40 = load i32, ptr %4, align 4, !tbaa !71
  %41 = icmp eq i32 %40, 133
  br i1 %41, label %52, label %42

42:                                               ; preds = %39
  %43 = load i32, ptr %4, align 4, !tbaa !71
  %44 = icmp eq i32 %43, 8232
  br i1 %44, label %52, label %45

45:                                               ; preds = %42
  %46 = load i32, ptr %4, align 4, !tbaa !71
  %47 = icmp eq i32 %46, 10
  br i1 %47, label %48, label %63

48:                                               ; preds = %45
  %49 = getelementptr inbounds nuw %"class.icu_77::RBBIRuleScanner", ptr %6, i32 0, i32 7
  %50 = load i32, ptr %49, align 4, !tbaa !29
  %51 = icmp ne i32 %50, 13
  br i1 %51, label %52, label %63

52:                                               ; preds = %48, %42, %39, %28
  %53 = getelementptr inbounds nuw %"class.icu_77::RBBIRuleScanner", ptr %6, i32 0, i32 5
  %54 = load i32, ptr %53, align 4, !tbaa !27
  %55 = add nsw i32 %54, 1
  store i32 %55, ptr %53, align 4, !tbaa !27
  %56 = getelementptr inbounds nuw %"class.icu_77::RBBIRuleScanner", ptr %6, i32 0, i32 6
  store i32 0, ptr %56, align 8, !tbaa !28
  %57 = getelementptr inbounds nuw %"class.icu_77::RBBIRuleScanner", ptr %6, i32 0, i32 4
  %58 = load i8, ptr %57, align 8, !tbaa !26
  %59 = icmp ne i8 %58, 0
  br i1 %59, label %60, label %62

60:                                               ; preds = %52
  call void @_ZN6icu_7715RBBIRuleScanner5errorE10UErrorCode(ptr noundef nonnull align 8 dereferenceable(3192) %6, i32 noundef 66056)
  %61 = getelementptr inbounds nuw %"class.icu_77::RBBIRuleScanner", ptr %6, i32 0, i32 4
  store i8 0, ptr %61, align 8, !tbaa !26
  br label %62

62:                                               ; preds = %60, %52
  br label %71

63:                                               ; preds = %48, %45
  %64 = load i32, ptr %4, align 4, !tbaa !71
  %65 = icmp ne i32 %64, 10
  br i1 %65, label %66, label %70

66:                                               ; preds = %63
  %67 = getelementptr inbounds nuw %"class.icu_77::RBBIRuleScanner", ptr %6, i32 0, i32 6
  %68 = load i32, ptr %67, align 8, !tbaa !28
  %69 = add nsw i32 %68, 1
  store i32 %69, ptr %67, align 8, !tbaa !28
  br label %70

70:                                               ; preds = %66, %63
  br label %71

71:                                               ; preds = %70, %62
  %72 = load i32, ptr %4, align 4, !tbaa !71
  %73 = getelementptr inbounds nuw %"class.icu_77::RBBIRuleScanner", ptr %6, i32 0, i32 7
  store i32 %72, ptr %73, align 4, !tbaa !29
  %74 = load i32, ptr %4, align 4, !tbaa !71
  store i32 %74, ptr %2, align 4
  store i32 1, ptr %5, align 4
  br label %75

75:                                               ; preds = %71, %27, %15
  call void @llvm.lifetime.end.p0(i64 4, ptr %4) #12
  %76 = load i32, ptr %2, align 4
  ret i32 %76
}