; Function Attrs: mustprogress uwtable
define noundef range(i32 57344, 55296) i32 @_ZN6icu_7715RBBIRuleScanner10nextCharLLEv(ptr noundef nonnull align 8 captures(none) dereferenceable(3192) %0) local_unnamed_addr #0 align 2 {
  %2 = getelementptr inbounds nuw i8, ptr %0, i64 20
  %3 = load i32, ptr %2, align 4, !tbaa !71
  %4 = getelementptr inbounds nuw i8, ptr %0, i64 8
  %5 = load ptr, ptr %4, align 8, !tbaa !12
  %6 = getelementptr inbounds nuw i8, ptr %5, i64 32
  %7 = load ptr, ptr %6, align 8, !tbaa !47
  %8 = getelementptr inbounds nuw i8, ptr %7, i64 8
  %9 = load i16, ptr %8, align 8, !tbaa !11
  %10 = icmp slt i16 %9, 0
  %11 = ashr i16 %9, 5
  %12 = sext i16 %11 to i32
  %13 = getelementptr inbounds nuw i8, ptr %7, i64 12
  %14 = load i32, ptr %13, align 4
  %15 = select i1 %10, i32 %14, i32 %12
  %.not = icmp slt i32 %3, %15
  br i1 %.not, label %16, label %_ZN6icu_7715RBBIRuleScanner5errorE10UErrorCode.exit

16:                                               ; preds = %1
  %17 = tail call noundef i32 @_ZNK6icu_7713UnicodeString8char32AtEi(ptr noundef nonnull align 8 dereferenceable(64) %7, i32 noundef %3)
  %18 = and i32 %17, -2048
  %19 = icmp eq i32 %18, 55296
  %20 = load ptr, ptr %4, align 8, !tbaa !12
  br i1 %19, label %21, label %37

21:                                               ; preds = %16
  %22 = getelementptr inbounds nuw i8, ptr %20, i64 16
  %23 = load ptr, ptr %22, align 8, !tbaa !35
  %24 = load i32, ptr %23, align 4, !tbaa !45
  %25 = icmp sgt i32 %24, 0
  br i1 %25, label %_ZN6icu_7715RBBIRuleScanner5errorE10UErrorCode.exit, label %26

26:                                               ; preds = %21
  store i32 12, ptr %23, align 4, !tbaa !45
  %27 = getelementptr inbounds nuw i8, ptr %20, i64 24
  %28 = load ptr, ptr %27, align 8, !tbaa !58
  %.not1.i = icmp eq ptr %28, null
  br i1 %.not1.i, label %_ZN6icu_7715RBBIRuleScanner5errorE10UErrorCode.exit, label %29

29:                                               ; preds = %26
  %30 = getelementptr inbounds nuw i8, ptr %0, i64 28
  %31 = load i32, ptr %30, align 4, !tbaa !24
  store i32 %31, ptr %28, align 4, !tbaa !59
  %32 = getelementptr inbounds nuw i8, ptr %0, i64 32
  %33 = load i32, ptr %32, align 8, !tbaa !25
  %34 = getelementptr inbounds nuw i8, ptr %28, i64 4
  store i32 %33, ptr %34, align 4, !tbaa !61
  %35 = getelementptr inbounds nuw i8, ptr %28, i64 8
  store i16 0, ptr %35, align 4, !tbaa !50
  %36 = getelementptr inbounds nuw i8, ptr %28, i64 40
  store i16 0, ptr %36, align 4, !tbaa !50
  br label %_ZN6icu_7715RBBIRuleScanner5errorE10UErrorCode.exit

37:                                               ; preds = %16
  %38 = getelementptr inbounds nuw i8, ptr %20, i64 32
  %39 = load ptr, ptr %38, align 8, !tbaa !47
  %40 = load i32, ptr %2, align 4, !tbaa !71
  %41 = tail call noundef i32 @_ZNK6icu_7713UnicodeString11moveIndex32Eii(ptr noundef nonnull align 8 dereferenceable(64) %39, i32 noundef %40, i32 noundef 1)
  store i32 %41, ptr %2, align 4, !tbaa !71
  switch i32 %17, label %65 [
    i32 8232, label %45
    i32 133, label %45
    i32 13, label %45
    i32 10, label %42
  ]

42:                                               ; preds = %37
  %43 = getelementptr inbounds nuw i8, ptr %0, i64 36
  %44 = load i32, ptr %43, align 4, !tbaa !26
  %.not13 = icmp eq i32 %44, 13
  br i1 %.not13, label %69, label %45

45:                                               ; preds = %37, %37, %37, %42
  %46 = getelementptr inbounds nuw i8, ptr %0, i64 28
  %47 = load i32, ptr %46, align 4, !tbaa !24
  %48 = add nsw i32 %47, 1
  store i32 %48, ptr %46, align 4, !tbaa !24
  %49 = getelementptr inbounds nuw i8, ptr %0, i64 32
  store i32 0, ptr %49, align 8, !tbaa !25
  %50 = getelementptr inbounds nuw i8, ptr %0, i64 24
  %51 = load i8, ptr %50, align 8, !tbaa !100
  %.not15 = icmp eq i8 %51, 0
  br i1 %.not15, label %69, label %52

52:                                               ; preds = %45
  %53 = load ptr, ptr %4, align 8, !tbaa !12
  %54 = getelementptr inbounds nuw i8, ptr %53, i64 16
  %55 = load ptr, ptr %54, align 8, !tbaa !35
  %56 = load i32, ptr %55, align 4, !tbaa !45
  %57 = icmp sgt i32 %56, 0
  br i1 %57, label %_ZN6icu_7715RBBIRuleScanner5errorE10UErrorCode.exit17, label %58

58:                                               ; preds = %52
  store i32 66056, ptr %55, align 4, !tbaa !45
  %59 = getelementptr inbounds nuw i8, ptr %53, i64 24
  %60 = load ptr, ptr %59, align 8, !tbaa !58
  %.not1.i16 = icmp eq ptr %60, null
  br i1 %.not1.i16, label %_ZN6icu_7715RBBIRuleScanner5errorE10UErrorCode.exit17, label %61

61:                                               ; preds = %58
  store i32 %48, ptr %60, align 4, !tbaa !59
  %62 = getelementptr inbounds nuw i8, ptr %60, i64 4
  store i32 0, ptr %62, align 4, !tbaa !61
  %63 = getelementptr inbounds nuw i8, ptr %60, i64 8
  store i16 0, ptr %63, align 4, !tbaa !50
  %64 = getelementptr inbounds nuw i8, ptr %60, i64 40
  store i16 0, ptr %64, align 4, !tbaa !50
  br label %_ZN6icu_7715RBBIRuleScanner5errorE10UErrorCode.exit17

_ZN6icu_7715RBBIRuleScanner5errorE10UErrorCode.exit17: ; preds = %52, %58, %61
  store i8 0, ptr %50, align 8, !tbaa !100
  br label %69

65:                                               ; preds = %37
  %66 = getelementptr inbounds nuw i8, ptr %0, i64 32
  %67 = load i32, ptr %66, align 8, !tbaa !25
  %68 = add nsw i32 %67, 1
  store i32 %68, ptr %66, align 8, !tbaa !25
  br label %69

69:                                               ; preds = %42, %65, %45, %_ZN6icu_7715RBBIRuleScanner5errorE10UErrorCode.exit17
  %70 = getelementptr inbounds nuw i8, ptr %0, i64 36
  store i32 %17, ptr %70, align 4, !tbaa !26
  br label %_ZN6icu_7715RBBIRuleScanner5errorE10UErrorCode.exit

_ZN6icu_7715RBBIRuleScanner5errorE10UErrorCode.exit: ; preds = %29, %26, %21, %1, %69
  %.0 = phi i32 [ %17, %69 ], [ -1, %1 ], [ -1, %21 ], [ -1, %26 ], [ -1, %29 ]
  ret i32 %.0
}